; Function Attrs: inlinehint mustprogress nounwind uwtable
define internal void @_ZN11opencv_test12_GLOBAL__N_119OneFrameSource_CUDAD0Ev(ptr noundef nonnull align 8 dereferenceable(72) initializes((0, 8)) %0) unnamed_addr #9 align 2 personality ptr @__gxx_personality_v0 {
  store ptr getelementptr inbounds nuw inrange(-16, 32) (i8, ptr @_ZTVN11opencv_test12_GLOBAL__N_119OneFrameSource_CUDAE, i64 16), ptr %0, align 8, !tbaa !19
  %2 = getelementptr inbounds nuw i8, ptr %0, i64 8
  invoke void @_ZN2cv4cuda6GpuMat7releaseEv(ptr noundef nonnull align 8 dereferenceable(64) %2)
          to label %_ZN11opencv_test12_GLOBAL__N_119OneFrameSource_CUDAD2Ev.exit unwind label %3

3:                                                ; preds = %1
  %4 = landingpad { ptr, i32 }
          catch ptr null
  %5 = extractvalue { ptr, i32 } %4, 0
  tail call void @__clang_call_terminate(ptr %5) #34
  unreachable

_ZN11opencv_test12_GLOBAL__N_119OneFrameSource_CUDAD2Ev.exit: ; preds = %1
  tail call void @_ZN2cv8superres11FrameSourceD2Ev(ptr noundef nonnull align 8 dereferenceable(72) %0) #31
  tail call void @_ZdlPv(ptr noundef nonnull %0) #33
  ret void
}